target datalayout = "e-m:e-p270:32:32-p271:32:32-p272:64:64-i64:64-i128:128-f80:128-n8:16:32:64-S128"
target triple = "x86_64-pc-linux-gnu"

%struct.Proto = type { i8, i8, i8, i8, i8, i8, i8, i8, ptr, ptr, ptr, ptr, ptr, i64, ptr, ptr, ptr, ptr, ptr, ptr, ptr, ptr, ptr, ptr, i32, i32, i32, i32, i32, i32, i32, i32, i32, i32 }
%struct.TString = type { i8, i8, i8, i16, ptr, i32, i32, [1 x i8] }

; Function Attrs: mustprogress nounwind uwtable
define hidden noundef i32 @_Z12luaG_getlineP5Protoi(ptr noundef %0, i32 noundef %1) #2 {
  %3 = alloca i32, align 4
  %4 = alloca ptr, align 8
  %5 = alloca i32, align 4
  store ptr %0, ptr %4, align 8, !tbaa !27
  store i32 %1, ptr %5, align 4, !tbaa !9
  %6 = load ptr, ptr %4, align 8, !tbaa !27
  %7 = getelementptr inbounds nuw %struct.Proto, ptr %6, i32 0, i32 14
  %8 = load ptr, ptr %7, align 8, !tbaa !94
  %9 = icmp ne ptr %8, null
  br i1 %9, label %11, label %10

10:                                               ; preds = %2
  store i32 0, ptr %3, align 4
  br label %32

11:                                               ; preds = %2
  %12 = load ptr, ptr %4, align 8, !tbaa !27
  %13 = getelementptr inbounds nuw %struct.Proto, ptr %12, i32 0, i32 15
  %14 = load ptr, ptr %13, align 8, !tbaa !106
  %15 = load i32, ptr %5, align 4, !tbaa !9
  %16 = load ptr, ptr %4, align 8, !tbaa !27
  %17 = getelementptr inbounds nuw %struct.Proto, ptr %16, i32 0, i32 30
  %18 = load i32, ptr %17, align 8, !tbaa !107
  %19 = ashr i32 %15, %18
  %20 = sext i32 %19 to i64
  %21 = getelementptr inbounds i32, ptr %14, i64 %20
  %22 = load i32, ptr %21, align 4, !tbaa !9
  %23 = load ptr, ptr %4, align 8, !tbaa !27
  %24 = getelementptr inbounds nuw %struct.Proto, ptr %23, i32 0, i32 14
  %25 = load ptr, ptr %24, align 8, !tbaa !94
  %26 = load i32, ptr %5, align 4, !tbaa !9
  %27 = sext i32 %26 to i64
  %28 = getelementptr inbounds i8, ptr %25, i64 %27
  %29 = load i8, ptr %28, align 1, !tbaa !37
  %30 = zext i8 %29 to i32
  %31 = add nsw i32 %22, %30
  store i32 %31, ptr %3, align 4
  br label %32

32:                                               ; preds = %11, %10
  %33 = load i32, ptr %3, align 4
  ret i32 %33
}

; Function Attrs: mustprogress uwtable
define internal void @_ZL11getcoverageP5ProtoiPimPvPFvS2_PKciiPKimE(ptr noundef %0, i32 noundef %1, ptr noundef %2, i64 noundef %3, ptr noundef %4, ptr noundef %5) #0 {
  %7 = alloca ptr, align 8
  %8 = alloca i32, align 4
  %9 = alloca ptr, align 8
  %10 = alloca i64, align 8
  %11 = alloca ptr, align 8
  %12 = alloca ptr, align 8
  %13 = alloca i32, align 4
  %14 = alloca i32, align 4
  %15 = alloca i32, align 4
  %16 = alloca i32, align 4
  %17 = alloca i32, align 4
  %18 = alloca ptr, align 8
  %19 = alloca i32, align 4
  %20 = alloca i32, align 4
  store ptr %0, ptr %7, align 8, !tbaa !27
  store i32 %1, ptr %8, align 4, !tbaa !9
  store ptr %2, ptr %9, align 8, !tbaa !112
  store i64 %3, ptr %10, align 8, !tbaa !111
  store ptr %4, ptr %11, align 8, !tbaa !93
  store ptr %5, ptr %12, align 8, !tbaa !93
  %21 = load ptr, ptr %9, align 8, !tbaa !112
  %22 = load i64, ptr %10, align 8, !tbaa !111
  %23 = mul i64 %22, 4
  call void @llvm.memset.p0.i64(ptr align 4 %21, i8 -1, i64 %23, i1 false)
  call void @llvm.lifetime.start.p0(i64 4, ptr %13) #11
  store i32 0, ptr %13, align 4, !tbaa !9
  br label %24

24:                                               ; preds = %73, %6
  %25 = load i32, ptr %13, align 4, !tbaa !9
  %26 = load ptr, ptr %7, align 8, !tbaa !27
  %27 = getelementptr inbounds nuw %struct.Proto, ptr %26, i32 0, i32 24
  %28 = load i32, ptr %27, align 8, !tbaa !96
  %29 = icmp slt i32 %25, %28
  br i1 %29, label %31, label %30

30:                                               ; preds = %24
  store i32 2, ptr %14, align 4
  call void @llvm.lifetime.end.p0(i64 4, ptr %13) #11
  br label %76

31:                                               ; preds = %24
  call void @llvm.lifetime.start.p0(i64 4, ptr %15) #11
  %32 = load ptr, ptr %7, align 8, !tbaa !27
  %33 = getelementptr inbounds nuw %struct.Proto, ptr %32, i32 0, i32 9
  %34 = load ptr, ptr %33, align 8, !tbaa !51
  %35 = load i32, ptr %13, align 4, !tbaa !9
  %36 = sext i32 %35 to i64
  %37 = getelementptr inbounds i32, ptr %34, i64 %36
  %38 = load i32, ptr %37, align 4, !tbaa !9
  store i32 %38, ptr %15, align 4, !tbaa !9
  %39 = load i32, ptr %15, align 4, !tbaa !9
  %40 = and i32 %39, 255
  %41 = icmp ne i32 %40, 69
  br i1 %41, label %42, label %43

42:                                               ; preds = %31
  store i32 4, ptr %14, align 4
  br label %70

43:                                               ; preds = %31
  call void @llvm.lifetime.start.p0(i64 4, ptr %16) #11
  %44 = load ptr, ptr %7, align 8, !tbaa !27
  %45 = load i32, ptr %13, align 4, !tbaa !9
  %46 = call noundef i32 @_Z12luaG_getlineP5Protoi(ptr noundef %44, i32 noundef %45)
  store i32 %46, ptr %16, align 4, !tbaa !9
  call void @llvm.lifetime.start.p0(i64 4, ptr %17) #11
  %47 = load i32, ptr %15, align 4, !tbaa !9
  %48 = ashr i32 %47, 8
  store i32 %48, ptr %17, align 4, !tbaa !9
  %49 = load ptr, ptr %9, align 8, !tbaa !112
  %50 = load i32, ptr %16, align 4, !tbaa !9
  %51 = sext i32 %50 to i64
  %52 = getelementptr inbounds i32, ptr %49, i64 %51
  %53 = load i32, ptr %52, align 4, !tbaa !9
  %54 = load i32, ptr %17, align 4, !tbaa !9
  %55 = icmp slt i32 %53, %54
  br i1 %55, label %56, label %58

56:                                               ; preds = %43
  %57 = load i32, ptr %17, align 4, !tbaa !9
  br label %64

58:                                               ; preds = %43
  %59 = load ptr, ptr %9, align 8, !tbaa !112
  %60 = load i32, ptr %16, align 4, !tbaa !9
  %61 = sext i32 %60 to i64
  %62 = getelementptr inbounds i32, ptr %59, i64 %61
  %63 = load i32, ptr %62, align 4, !tbaa !9
  br label %64

64:                                               ; preds = %58, %56
  %65 = phi i32 [ %57, %56 ], [ %63, %58 ]
  %66 = load ptr, ptr %9, align 8, !tbaa !112
  %67 = load i32, ptr %16, align 4, !tbaa !9
  %68 = sext i32 %67 to i64
  %69 = getelementptr inbounds i32, ptr %66, i64 %68
  store i32 %65, ptr %69, align 4, !tbaa !9
  call void @llvm.lifetime.end.p0(i64 4, ptr %17) #11
  call void @llvm.lifetime.end.p0(i64 4, ptr %16) #11
  store i32 0, ptr %14, align 4
  br label %70

70:                                               ; preds = %64, %42
  call void @llvm.lifetime.end.p0(i64 4, ptr %15) #11
  %71 = load i32, ptr %14, align 4
  switch i32 %71, label %125 [
    i32 0, label %72
    i32 4, label %73
  ]

72:                                               ; preds = %70
  br label %73

73:                                               ; preds = %72, %70
  %74 = load i32, ptr %13, align 4, !tbaa !9
  %75 = add nsw i32 %74, 1
  store i32 %75, ptr %13, align 4, !tbaa !9
  br label %24, !llvm.loop !115

76:                                               ; preds = %30
  call void @llvm.lifetime.start.p0(i64 8, ptr %18) #11
  %77 = load ptr, ptr %7, align 8, !tbaa !27
  %78 = getelementptr inbounds nuw %struct.Proto, ptr %77, i32 0, i32 19
  %79 = load ptr, ptr %78, align 8, !tbaa !116
  %80 = icmp ne ptr %79, null
  br i1 %80, label %81, label %87

81:                                               ; preds = %76
  %82 = load ptr, ptr %7, align 8, !tbaa !27
  %83 = getelementptr inbounds nuw %struct.Proto, ptr %82, i32 0, i32 19
  %84 = load ptr, ptr %83, align 8, !tbaa !116
  %85 = getelementptr inbounds nuw %struct.TString, ptr %84, i32 0, i32 7
  %86 = getelementptr inbounds [1 x i8], ptr %85, i64 0, i64 0
  br label %88

87:                                               ; preds = %76
  br label %88

88:                                               ; preds = %87, %81
  %89 = phi ptr [ %86, %81 ], [ null, %87 ]
  store ptr %89, ptr %18, align 8, !tbaa !49
  call void @llvm.lifetime.start.p0(i64 4, ptr %19) #11
  %90 = load ptr, ptr %7, align 8, !tbaa !27
  %91 = getelementptr inbounds nuw %struct.Proto, ptr %90, i32 0, i32 31
  %92 = load i32, ptr %91, align 4, !tbaa !68
  store i32 %92, ptr %19, align 4, !tbaa !9
  %93 = load ptr, ptr %12, align 8, !tbaa !93
  %94 = load ptr, ptr %11, align 8, !tbaa !93
  %95 = load ptr, ptr %18, align 8, !tbaa !49
  %96 = load i32, ptr %19, align 4, !tbaa !9
  %97 = load i32, ptr %8, align 4, !tbaa !9
  %98 = load ptr, ptr %9, align 8, !tbaa !112
  %99 = load i64, ptr %10, align 8, !tbaa !111
  call void %93(ptr noundef %94, ptr noundef %95, i32 noundef %96, i32 noundef %97, ptr noundef %98, i64 noundef %99)
  call void @llvm.lifetime.start.p0(i64 4, ptr %20) #11
  store i32 0, ptr %20, align 4, !tbaa !9
  br label %100

100:                                              ; preds = %121, %88
  %101 = load i32, ptr %20, align 4, !tbaa !9
  %102 = load ptr, ptr %7, align 8, !tbaa !27
  %103 = getelementptr inbounds nuw %struct.Proto, ptr %102, i32 0, i32 25
  %104 = load i32, ptr %103, align 4, !tbaa !103
  %105 = icmp slt i32 %101, %104
  br i1 %105, label %107, label %106

106:                                              ; preds = %100
  store i32 5, ptr %14, align 4
  call void @llvm.lifetime.end.p0(i64 4, ptr %20) #11
  br label %124

107:                                              ; preds = %100
  %108 = load ptr, ptr %7, align 8, !tbaa !27
  %109 = getelementptr inbounds nuw %struct.Proto, ptr %108, i32 0, i32 10
  %110 = load ptr, ptr %109, align 8, !tbaa !104
  %111 = load i32, ptr %20, align 4, !tbaa !9
  %112 = sext i32 %111 to i64
  %113 = getelementptr inbounds ptr, ptr %110, i64 %112
  %114 = load ptr, ptr %113, align 8, !tbaa !27
  %115 = load i32, ptr %8, align 4, !tbaa !9
  %116 = add nsw i32 %115, 1
  %117 = load ptr, ptr %9, align 8, !tbaa !112
  %118 = load i64, ptr %10, align 8, !tbaa !111
  %119 = load ptr, ptr %11, align 8, !tbaa !93
  %120 = load ptr, ptr %12, align 8, !tbaa !93
  call void @_ZL11getcoverageP5ProtoiPimPvPFvS2_PKciiPKimE(ptr noundef %114, i32 noundef %116, ptr noundef %117, i64 noundef %118, ptr noundef %119, ptr noundef %120)
  br label %121

121:                                              ; preds = %107
  %122 = load i32, ptr %20, align 4, !tbaa !9
  %123 = add nsw i32 %122, 1
  store i32 %123, ptr %20, align 4, !tbaa !9
  br label %100, !llvm.loop !117

124:                                              ; preds = %106
  call void @llvm.lifetime.end.p0(i64 4, ptr %19) #11
  call void @llvm.lifetime.end.p0(i64 8, ptr %18) #11
  ret void

125:                                              ; preds = %70
  unreachable
}