; Function Attrs: mustprogress uwtable
define internal fastcc void @_ZL11getcoverageP5ProtoiPimPvPFvS2_PKciiPKimE(ptr noundef readonly captures(none) %0, i32 noundef %1, ptr noundef %2, i64 noundef range(i64 0, 2147483648) %3, ptr noundef %4, ptr noundef readonly captures(none) %5) unnamed_addr #0 {
  %7 = shl nuw nsw i64 %3, 2
  tail call void @llvm.memset.p0.i64(ptr align 4 %2, i8 -1, i64 %7, i1 false)
  %8 = getelementptr inbounds nuw i8, ptr %0, i64 136
  %9 = load i32, ptr %8, align 8, !tbaa !84
  %10 = icmp sgt i32 %9, 0
  br i1 %10, label %.lr.ph, label %._crit_edge

.lr.ph:                                           ; preds = %6
  %11 = getelementptr inbounds nuw i8, ptr %0, i64 16
  %12 = load ptr, ptr %11, align 8, !tbaa !40
  %13 = getelementptr inbounds nuw i8, ptr %0, i64 56
  %14 = getelementptr inbounds nuw i8, ptr %0, i64 64
  %15 = getelementptr inbounds nuw i8, ptr %0, i64 160
  br label %26

._crit_edge:                                      ; preds = %49, %6
  %16 = getelementptr inbounds nuw i8, ptr %0, i64 96
  %17 = load ptr, ptr %16, align 8, !tbaa !65
  %.not = icmp eq ptr %17, null
  %18 = getelementptr inbounds nuw i8, ptr %17, i64 24
  %spec.select = select i1 %.not, ptr null, ptr %18
  %19 = getelementptr inbounds nuw i8, ptr %0, i64 164
  %20 = load i32, ptr %19, align 4, !tbaa !54
  tail call void %5(ptr noundef %4, ptr noundef %spec.select, i32 noundef %20, i32 noundef %1, ptr noundef %2, i64 noundef %3)
  %21 = getelementptr inbounds nuw i8, ptr %0, i64 140
  %22 = load i32, ptr %21, align 4, !tbaa !89
  %23 = icmp sgt i32 %22, 0
  br i1 %23, label %.lr.ph47, label %._crit_edge48

.lr.ph47:                                         ; preds = %._crit_edge
  %24 = getelementptr inbounds nuw i8, ptr %0, i64 24
  %25 = add nsw i32 %1, 1
  br label %53

26:                                               ; preds = %.lr.ph, %49
  %27 = phi i32 [ %9, %.lr.ph ], [ %50, %49 ]
  %indvars.iv = phi i64 [ 0, %.lr.ph ], [ %indvars.iv.next, %49 ]
  %28 = getelementptr inbounds nuw i32, ptr %12, i64 %indvars.iv
  %29 = load i32, ptr %28, align 4, !tbaa !46
  %30 = and i32 %29, 255
  %.not42 = icmp eq i32 %30, 69
  br i1 %.not42, label %31, label %49

31:                                               ; preds = %26
  %32 = load ptr, ptr %13, align 8, !tbaa !57
  %.not.i = icmp eq ptr %32, null
  br i1 %.not.i, label %_Z12luaG_getlineP5Protoi.exit, label %33

33:                                               ; preds = %31
  %34 = load ptr, ptr %14, align 8, !tbaa !58
  %35 = load i32, ptr %15, align 8, !tbaa !59
  %36 = trunc nuw nsw i64 %indvars.iv to i32
  %37 = lshr i32 %36, %35
  %38 = zext nneg i32 %37 to i64
  %39 = getelementptr inbounds nuw i32, ptr %34, i64 %38
  %40 = load i32, ptr %39, align 4, !tbaa !46
  %41 = getelementptr inbounds nuw i8, ptr %32, i64 %indvars.iv
  %42 = load i8, ptr %41, align 1, !tbaa !26
  %43 = zext i8 %42 to i32
  %44 = add nsw i32 %40, %43
  %45 = sext i32 %44 to i64
  br label %_Z12luaG_getlineP5Protoi.exit

_Z12luaG_getlineP5Protoi.exit:                    ; preds = %31, %33
  %.0.i = phi i64 [ %45, %33 ], [ 0, %31 ]
  %46 = ashr i32 %29, 8
  %47 = getelementptr inbounds i32, ptr %2, i64 %.0.i
  %48 = load i32, ptr %47, align 4, !tbaa !46
  %. = tail call i32 @llvm.smax.i32(i32 %48, i32 %46)
  store i32 %., ptr %47, align 4, !tbaa !46
  %.pre = load i32, ptr %8, align 8, !tbaa !84
  br label %49

49:                                               ; preds = %26, %_Z12luaG_getlineP5Protoi.exit
  %50 = phi i32 [ %27, %26 ], [ %.pre, %_Z12luaG_getlineP5Protoi.exit ]
  %indvars.iv.next = add nuw nsw i64 %indvars.iv, 1
  %51 = sext i32 %50 to i64
  %52 = icmp slt i64 %indvars.iv.next, %51
  br i1 %52, label %26, label %._crit_edge, !llvm.loop !99

._crit_edge48:                                    ; preds = %53, %._crit_edge
  ret void

53:                                               ; preds = %.lr.ph47, %53
  %indvars.iv50 = phi i64 [ 0, %.lr.ph47 ], [ %indvars.iv.next51, %53 ]
  %54 = load ptr, ptr %24, align 8, !tbaa !90
  %55 = getelementptr inbounds nuw ptr, ptr %54, i64 %indvars.iv50
  %56 = load ptr, ptr %55, align 8, !tbaa !91
  tail call fastcc void @_ZL11getcoverageP5ProtoiPimPvPFvS2_PKciiPKimE(ptr noundef %56, i32 noundef %25, ptr noundef %2, i64 noundef %3, ptr noundef %4, ptr noundef %5)
  %indvars.iv.next51 = add nuw nsw i64 %indvars.iv50, 1
  %57 = load i32, ptr %21, align 4, !tbaa !89
  %58 = sext i32 %57 to i64
  %59 = icmp slt i64 %indvars.iv.next51, %58
  br i1 %59, label %53, label %._crit_edge48, !llvm.loop !100
}